(dp1
S'/'
(lp2
(dp3
a(dp4
S'dir1'
p5
(lp6
(dp7
a(dp8
S'dir1'
p9
(lp10
(dp11
S'test.txt'
p12
V<html>\u000a    <head>\u000a        <title> Hello test.html </title>\u000a    </head>\u000a    <body>\u000a        <p> Hello World </p>\u000a    </body>\u000a</html>
p13
sa(dp14
asasS'dir'
p15
(lp16
(dp17
S'test.html'
p18
VNO OPEN FILE\u000a
p19
sa(dp20
asas.