(dp1
S'/'
(lp2
(dp3
a(dp4
S'dir1'
p5
(lp6
(dp7
a(dp8
S'dir1'
p9
(lp10
(dp11
S'test.txt'
p12
S'Bassus victrix saepe imperiums galatae est.'
p13
sa(dp14
asasS'dir'
p15
(lp16
(dp17
S'test.html'
p18
S'<html>\n    <head>\n        <title> Hello test.html </title>\n    </head>\n    <body>\n        <p> Hello World </p>\n    </body>\n</html>'
p19
sa(dp20
S'folder'
p21
(lp22
(dp23
a(dp24
S'path'
p25
(lp26
(dp27
a(dp28
asasasas.