(dp1
S'/'
(lp2
(dp3
S'test.html'
p4
S'<html>\n    <head>\n        <title> Hello test.html </title>\n    </head>\n    <body>\n        <p> Hello World </p>\n    </body>\n</html>'
p5
sa(dp6
S'dir1'
p7
(lp8
(dp9
a(dp10
S'dir1'
p11
(lp12
(dp13
S'test.txt'
p14
S'Bassus victrix saepe imperiums galatae est.'
p15
sa(dp16
asasS'dir'
p17
(lp18
(dp19
a(dp20
S'folder'
p21
(lp22
(dp23
a(dp24
S'path'
p25
(lp26
(dp27
a(dp28
asasasas.