(dp1
S'/'
(lp2
(dp3
a(dp4
S'dir1'
p5
(lp6
(dp7
a(dp8
S'dir1'
p9
(lp10
(dp11
S'test.txt'
p12
VBassus victrix saepe imperiums galatae est.
p13
sa(dp14
asasS'dir'
p15
(lp16
(dp17
S'test.html'
p18
V<!doctype html>\u000a<html>\u000a    <head>\u000a        <title> Hello World </title>\u000a    </head>\u000a    <body>\u000a        <h1> Title </h1>\u000a        <p> Some text </p>\u000a    </body>\u000a</html>
p19
sa(dp20
asas.