(dp1
S'/'
(lp2
(dp3
a(dp4
S'dir1'
p5
(lp6
(dp7
a(dp8
S'dir1'
p9
(lp10
(dp11
S'test.txt'
p12
S'Bassus victrix saepe imperiums galatae est.'
p13
sa(dp14
asasS'folder'
p15
(lp16
(dp17
a(dp18
asS'dir'
p19
(lp20
(dp21
S'test.html'
p22
S"Hello World from 'test.html'"
p23
sa(dp24
S'folder'
p25
(lp26
(dp27
a(dp28
S'path'
p29
(lp30
(dp31
a(dp32
asasasas.